target datalayout = "e-m:e-p270:32:32-p271:32:32-p272:64:64-i64:64-i128:128-f80:128-n8:16:32:64-S128"
target triple = "x86_64-pc-linux-gnu"

@local_test_path = internal global ptr null, align 8
@.str = private unnamed_addr constant [39 x i8] c"../qemu/tests/qtest/libqos/virtio-9p.c\00", align 1
@__func__.virtio_9p_test_path = private unnamed_addr constant [20 x i8] c"virtio_9p_test_path\00", align 1
@.str.8 = private unnamed_addr constant [16 x i8] c"local_test_path\00", align 1

; Function Attrs: nounwind sspstrong uwtable
define internal ptr @concat_path(ptr noundef %0, ptr noundef %1) #0 {
  %3 = alloca ptr, align 8
  %4 = alloca ptr, align 8
  store ptr %0, ptr %3, align 8
  store ptr %1, ptr %4, align 8
  %5 = load ptr, ptr %3, align 8
  %6 = load ptr, ptr %4, align 8
  %7 = call noalias ptr (ptr, ...) @g_build_filename(ptr noundef %5, ptr noundef %6, ptr noundef null)
  ret ptr %7
}

; Function Attrs: nounwind sspstrong uwtable
define dso_local ptr @virtio_9p_test_path(ptr noundef %0) #0 {
  %2 = alloca ptr, align 8
  %3 = alloca i32, align 4
  %4 = alloca i32, align 4
  store ptr %0, ptr %2, align 8
  br label %5

5:                                                ; preds = %1
  call void @llvm.lifetime.start.p0(i64 4, ptr %3) #14
  store i32 0, ptr %3, align 4, !annotation !4
  %6 = load ptr, ptr @local_test_path, align 8
  %7 = icmp ne ptr %6, null
  br i1 %7, label %8, label %9

8:                                                ; preds = %5
  store i32 1, ptr %3, align 4
  br label %10

9:                                                ; preds = %5
  store i32 0, ptr %3, align 4
  br label %10

10:                                               ; preds = %9, %8
  %11 = load i32, ptr %3, align 4
  store i32 %11, ptr %4, align 4
  call void @llvm.lifetime.end.p0(i64 4, ptr %3) #14
  %12 = load i32, ptr %4, align 4
  %13 = sext i32 %12 to i64
  %14 = call i64 @llvm.expect.i64(i64 %13, i64 1)
  %15 = icmp ne i64 %14, 0
  br i1 %15, label %16, label %17

16:                                               ; preds = %10
  br label %18

17:                                               ; preds = %10
  call void @g_assertion_message_expr(ptr noundef null, ptr noundef @.str, i32 noundef 78, ptr noundef @__func__.virtio_9p_test_path, ptr noundef @.str.8) #15
  unreachable

18:                                               ; preds = %16
  br label %19

19:                                               ; preds = %18
  %20 = load ptr, ptr @local_test_path, align 8
  %21 = load ptr, ptr %2, align 8
  %22 = call ptr @concat_path(ptr noundef %20, ptr noundef %21)
  ret ptr %22
}