; Function Attrs: nounwind sspstrong uwtable
define dso_local noalias ptr @virtio_9p_test_path(ptr noundef %0) local_unnamed_addr #0 {
  %2 = load ptr, ptr @local_test_path, align 8
  %.not = icmp eq ptr %2, null
  br i1 %.not, label %3, label %4, !prof !7

3:                                                ; preds = %1
  tail call void @g_assertion_message_expr(ptr noundef null, ptr noundef nonnull @.str, i32 noundef 78, ptr noundef nonnull @__func__.virtio_9p_test_path, ptr noundef nonnull @.str.8) #12
  unreachable

4:                                                ; preds = %1
  %5 = tail call noalias ptr (ptr, ...) @g_build_filename(ptr noundef nonnull %2, ptr noundef %0, ptr noundef null) #13
  ret ptr %5
}